target datalayout = "e-m:e-p270:32:32-p271:32:32-p272:64:64-i64:64-i128:128-f80:128-n8:16:32:64-S128"
target triple = "x86_64-pc-linux-gnu"

%"struct.Luau::Position" = type { i32, i32 }
%"class.Luau::AstVisitor" = type { ptr }
%"class.Luau::AstNode" = type <{ ptr, i32, %"struct.Luau::Location", [4 x i8] }>
%"struct.Luau::Location" = type { %"struct.Luau::Position", %"struct.Luau::Position" }
%"class.Luau::AstStatFunction" = type { %"class.Luau::AstStat.base", ptr, ptr }
%"class.Luau::AstStat.base" = type { %"class.Luau::AstNode.base", i8 }
%"class.Luau::AstNode.base" = type <{ ptr, i32, %"struct.Luau::Location" }>
%"struct.Luau::(anonymous namespace)::FindNode" = type { %"class.Luau::AstVisitor", %"struct.Luau::Position", %"struct.Luau::Position", ptr }

; Function Attrs: mustprogress uwtable
define internal noundef zeroext i1 @_ZN4Luau12_GLOBAL__N_18FindNode5visitEPNS_15AstStatFunctionE(ptr noundef nonnull align 8 dereferenceable(32) %0, ptr noundef %1) unnamed_addr #5 align 2 {
  %3 = alloca ptr, align 8
  %4 = alloca ptr, align 8
  store ptr %0, ptr %3, align 8, !tbaa !101
  store ptr %1, ptr %4, align 8, !tbaa !36
  %5 = load ptr, ptr %3, align 8
  %6 = load ptr, ptr %4, align 8, !tbaa !36
  %7 = load ptr, ptr %5, align 8, !tbaa !13
  %8 = getelementptr inbounds ptr, ptr %7, i64 2
  %9 = load ptr, ptr %8, align 8
  %10 = call noundef zeroext i1 %9(ptr noundef nonnull align 8 dereferenceable(32) %5, ptr noundef %6)
  %11 = load ptr, ptr %4, align 8, !tbaa !36
  %12 = getelementptr inbounds nuw %"class.Luau::AstStatFunction", ptr %11, i32 0, i32 1
  %13 = load ptr, ptr %12, align 8, !tbaa !38
  %14 = getelementptr inbounds nuw %"class.Luau::AstNode", ptr %13, i32 0, i32 2
  %15 = getelementptr inbounds nuw %"struct.Luau::(anonymous namespace)::FindNode", ptr %5, i32 0, i32 1
  %16 = call noundef zeroext i1 @_ZNK4Luau8Location8containsERKNS_8PositionE(ptr noundef nonnull align 4 dereferenceable(16) %14, ptr noundef nonnull align 4 dereferenceable(8) %15)
  br i1 %16, label %17, label %24

17:                                               ; preds = %2
  %18 = load ptr, ptr %4, align 8, !tbaa !36
  %19 = getelementptr inbounds nuw %"class.Luau::AstStatFunction", ptr %18, i32 0, i32 1
  %20 = load ptr, ptr %19, align 8, !tbaa !38
  %21 = load ptr, ptr %20, align 8, !tbaa !13
  %22 = getelementptr inbounds ptr, ptr %21, i64 0
  %23 = load ptr, ptr %22, align 8
  call void %23(ptr noundef nonnull align 8 dereferenceable(28) %20, ptr noundef %5)
  br label %39

24:                                               ; preds = %2
  %25 = load ptr, ptr %4, align 8, !tbaa !36
  %26 = getelementptr inbounds nuw %"class.Luau::AstStatFunction", ptr %25, i32 0, i32 2
  %27 = load ptr, ptr %26, align 8, !tbaa !45
  %28 = getelementptr inbounds nuw %"class.Luau::AstNode", ptr %27, i32 0, i32 2
  %29 = getelementptr inbounds nuw %"struct.Luau::(anonymous namespace)::FindNode", ptr %5, i32 0, i32 1
  %30 = call noundef zeroext i1 @_ZNK4Luau8Location8containsERKNS_8PositionE(ptr noundef nonnull align 4 dereferenceable(16) %28, ptr noundef nonnull align 4 dereferenceable(8) %29)
  br i1 %30, label %31, label %38

31:                                               ; preds = %24
  %32 = load ptr, ptr %4, align 8, !tbaa !36
  %33 = getelementptr inbounds nuw %"class.Luau::AstStatFunction", ptr %32, i32 0, i32 2
  %34 = load ptr, ptr %33, align 8, !tbaa !45
  %35 = load ptr, ptr %34, align 8, !tbaa !13
  %36 = getelementptr inbounds ptr, ptr %35, i64 0
  %37 = load ptr, ptr %36, align 8
  call void %37(ptr noundef nonnull align 8 dereferenceable(212) %34, ptr noundef %5)
  br label %38

38:                                               ; preds = %31, %24
  br label %39

39:                                               ; preds = %38, %17
  ret i1 false
}