; Function Attrs: mustprogress uwtable
define internal noundef zeroext i1 @_ZN4Luau12_GLOBAL__N_18FindNode5visitEPNS_15AstStatFunctionE(ptr noundef nonnull align 8 dereferenceable(32) %0, ptr noundef %1) unnamed_addr #4 align 2 {
  %3 = load ptr, ptr %0, align 8, !tbaa !8
  %4 = getelementptr inbounds nuw i8, ptr %3, i64 16
  %5 = load ptr, ptr %4, align 8
  %6 = tail call noundef zeroext i1 %5(ptr noundef nonnull align 8 dereferenceable(32) %0, ptr noundef %1)
  %7 = getelementptr inbounds nuw i8, ptr %1, i64 32
  %8 = load ptr, ptr %7, align 8, !tbaa !30
  %9 = getelementptr inbounds nuw i8, ptr %8, i64 12
  %10 = getelementptr inbounds nuw i8, ptr %0, i64 8
  %11 = tail call noundef zeroext i1 @_ZNK4Luau8Location8containsERKNS_8PositionE(ptr noundef nonnull align 4 dereferenceable(16) %9, ptr noundef nonnull align 4 dereferenceable(8) %10)
  br i1 %11, label %.sink.split, label %12

12:                                               ; preds = %2
  %13 = getelementptr inbounds nuw i8, ptr %1, i64 40
  %14 = load ptr, ptr %13, align 8, !tbaa !37
  %15 = getelementptr inbounds nuw i8, ptr %14, i64 12
  %16 = tail call noundef zeroext i1 @_ZNK4Luau8Location8containsERKNS_8PositionE(ptr noundef nonnull align 4 dereferenceable(16) %15, ptr noundef nonnull align 4 dereferenceable(8) %10)
  br i1 %16, label %.sink.split, label %19

.sink.split:                                      ; preds = %12, %2
  %.sink8.in = phi ptr [ %7, %2 ], [ %13, %12 ]
  %.sink8 = load ptr, ptr %.sink8.in, align 8, !tbaa !38
  %17 = load ptr, ptr %.sink8, align 8, !tbaa !8
  %18 = load ptr, ptr %17, align 8
  tail call void %18(ptr noundef nonnull align 8 dereferenceable(28) %.sink8, ptr noundef nonnull %0)
  br label %19

19:                                               ; preds = %.sink.split, %12
  ret i1 false
}